target datalayout = "e-m:e-p270:32:32-p271:32:32-p272:64:64-i64:64-i128:128-f80:128-n8:16:32:64-S128"
target triple = "x86_64-unknown-linux-gnu"

%struct.timeval = type { i64, i64 }
%struct.timezone_ = type { %struct.timezone }
%struct.timezone = type { i32, i32 }
%struct.tm = type { i32, i32, i32, i32, i32, i32, i32, i32, i32, i64, ptr }

@timezone = external global i64, align 8

; Function Attrs: mustprogress nounwind uwtable
define dso_local noundef i32 @_ZN2EA4StdC12GetTimeOfDayEP7timevalP9timezone_b(ptr noundef %pTV, ptr noundef %pTZ, i1 noundef zeroext %bUTC) #3 {
entry:
  %pTV.addr = alloca ptr, align 8
  %pTZ.addr = alloca ptr, align 8
  %bUTC.addr = alloca i8, align 1
  %tz = alloca %struct.timezone_, align 4
  %tv = alloca %struct.timeval, align 8
  %result = alloca i32, align 4
  %nowtm = alloca i64, align 8
  %tmResult = alloca %struct.tm, align 8
  %ptmResult = alloca ptr, align 8
  store ptr %pTV, ptr %pTV.addr, align 8
  store ptr %pTZ, ptr %pTZ.addr, align 8
  %frombool = zext i1 %bUTC to i8
  store i8 %frombool, ptr %bUTC.addr, align 1
  %0 = load ptr, ptr %pTZ.addr, align 8
  %tobool = icmp ne ptr %0, null
  br i1 %tobool, label %if.end, label %if.then

if.then:                                          ; preds = %entry
  store ptr %tz, ptr %pTZ.addr, align 8
  br label %if.end

if.end:                                           ; preds = %if.then, %entry
  %1 = load ptr, ptr %pTV.addr, align 8
  %tobool1 = icmp ne ptr %1, null
  br i1 %tobool1, label %if.end3, label %if.then2

if.then2:                                         ; preds = %if.end
  store ptr %tv, ptr %pTV.addr, align 8
  br label %if.end3

if.end3:                                          ; preds = %if.then2, %if.end
  %2 = load ptr, ptr %pTV.addr, align 8
  %3 = load ptr, ptr %pTZ.addr, align 8
  %call = call i32 @gettimeofday(ptr noundef %2, ptr noundef %3) #1
  store i32 %call, ptr %result, align 4
  %4 = load i64, ptr @timezone, align 8
  %div = sdiv i64 %4, 60
  %conv = trunc i64 %div to i32
  %5 = load ptr, ptr %pTZ.addr, align 8
  %tz_minuteswest = getelementptr inbounds %struct.timezone, ptr %5, i32 0, i32 0
  store i32 %conv, ptr %tz_minuteswest, align 4
  %6 = load ptr, ptr %pTV.addr, align 8
  %tv_sec = getelementptr inbounds %struct.timeval, ptr %6, i32 0, i32 0
  %7 = load i64, ptr %tv_sec, align 8
  store i64 %7, ptr %nowtm, align 8
  %call4 = call ptr @localtime_r(ptr noundef %nowtm, ptr noundef %tmResult) #1
  store ptr %call4, ptr %ptmResult, align 8
  %8 = load i32, ptr %result, align 4
  %cmp = icmp ne i32 %8, 0
  br i1 %cmp, label %cond.true, label %cond.false

cond.true:                                        ; preds = %if.end3
  %9 = load i32, ptr %result, align 4
  br label %cond.end

cond.false:                                       ; preds = %if.end3
  %10 = load ptr, ptr %ptmResult, align 8
  %cmp5 = icmp eq ptr %10, %tmResult
  %lnot = xor i1 %cmp5, true
  %conv6 = zext i1 %lnot to i32
  br label %cond.end

cond.end:                                         ; preds = %cond.false, %cond.true
  %cond = phi i32 [ %9, %cond.true ], [ %conv6, %cond.false ]
  store i32 %cond, ptr %result, align 4
  %tm_isdst = getelementptr inbounds %struct.tm, ptr %tmResult, i32 0, i32 8
  %11 = load i32, ptr %tm_isdst, align 8
  %12 = load ptr, ptr %pTZ.addr, align 8
  %tz_dsttime = getelementptr inbounds %struct.timezone, ptr %12, i32 0, i32 1
  store i32 %11, ptr %tz_dsttime, align 4
  %13 = load i32, ptr %result, align 4
  %cmp7 = icmp eq i32 %13, 0
  br i1 %cmp7, label %land.lhs.true, label %if.end20

land.lhs.true:                                    ; preds = %cond.end
  %14 = load ptr, ptr %pTV.addr, align 8
  %tobool8 = icmp ne ptr %14, null
  br i1 %tobool8, label %if.then9, label %if.end20

if.then9:                                         ; preds = %land.lhs.true
  %15 = load i8, ptr %bUTC.addr, align 1
  %tobool10 = trunc i8 %15 to i1
  br i1 %tobool10, label %if.end19, label %if.then11

if.then11:                                        ; preds = %if.then9
  %16 = load ptr, ptr %pTZ.addr, align 8
  %tz_minuteswest12 = getelementptr inbounds %struct.timezone, ptr %16, i32 0, i32 0
  %17 = load i32, ptr %tz_minuteswest12, align 4
  %mul = mul nsw i32 %17, 60
  %18 = load ptr, ptr %pTZ.addr, align 8
  %tz_dsttime13 = getelementptr inbounds %struct.timezone, ptr %18, i32 0, i32 1
  %19 = load i32, ptr %tz_dsttime13, align 4
  %tobool14 = icmp ne i32 %19, 0
  %cond15 = select i1 %tobool14, i32 3600, i32 0
  %sub = sub nsw i32 %mul, %cond15
  %conv16 = sext i32 %sub to i64
  %20 = load ptr, ptr %pTV.addr, align 8
  %tv_sec17 = getelementptr inbounds %struct.timeval, ptr %20, i32 0, i32 0
  %21 = load i64, ptr %tv_sec17, align 8
  %sub18 = sub nsw i64 %21, %conv16
  store i64 %sub18, ptr %tv_sec17, align 8
  br label %if.end19

if.end19:                                         ; preds = %if.then11, %if.then9
  br label %if.end20

if.end20:                                         ; preds = %if.end19, %land.lhs.true, %cond.end
  %22 = load i32, ptr %result, align 4
  ret i32 %22
}

; Function Attrs: mustprogress uwtable
define dso_local void @_ZN2EA4StdC8DateTime3SetENS0_9TimeFrameEb(ptr noundef nonnull align 8 dereferenceable(12) %this, i32 noundef %timeFrame, i1 noundef zeroext %bSetNanoseconds) #0 align 2 {
entry:
  %this.addr = alloca ptr, align 8
  %timeFrame.addr = alloca i32, align 4
  %bSetNanoseconds.addr = alloca i8, align 1
  %nTime = alloca i64, align 8
  %pTime = alloca ptr, align 8
  %tmCopy = alloca %struct.tm, align 8
  %tv = alloca %struct.timeval, align 8
  store ptr %this, ptr %this.addr, align 8
  store i32 %timeFrame, ptr %timeFrame.addr, align 4
  %frombool = zext i1 %bSetNanoseconds to i8
  store i8 %frombool, ptr %bSetNanoseconds.addr, align 1
  %this1 = load ptr, ptr %this.addr, align 8
  %call = call i64 @time(ptr noundef null) #1
  store i64 %call, ptr %nTime, align 8
  %0 = load i32, ptr %timeFrame.addr, align 4
  %cmp = icmp eq i32 %0, 1
  br i1 %cmp, label %cond.true, label %cond.false

cond.true:                                        ; preds = %entry
  %call2 = call ptr @gmtime(ptr noundef %nTime) #1
  br label %cond.end

cond.false:                                       ; preds = %entry
  %call3 = call ptr @localtime(ptr noundef %nTime) #1
  br label %cond.end

cond.end:                                         ; preds = %cond.false, %cond.true
  %cond = phi ptr [ %call2, %cond.true ], [ %call3, %cond.false ]
  store ptr %cond, ptr %pTime, align 8
  %1 = load ptr, ptr %pTime, align 8
  call void @llvm.memcpy.p0.p0.i64(ptr align 8 %tmCopy, ptr align 8 %1, i64 56, i1 false)
  %2 = load i8, ptr %bSetNanoseconds.addr, align 1
  %tobool = trunc i8 %2 to i1
  br i1 %tobool, label %if.then, label %if.else

if.then:                                          ; preds = %cond.end
  %3 = load i32, ptr %timeFrame.addr, align 4
  %cmp4 = icmp eq i32 %3, 1
  %call5 = call noundef i32 @_ZN2EA4StdC12GetTimeOfDayEP7timevalP9timezone_b(ptr noundef %tv, ptr noundef null, i1 noundef zeroext %cmp4)
  br label %if.end

if.else:                                          ; preds = %cond.end
  %tv_usec = getelementptr inbounds %struct.timeval, ptr %tv, i32 0, i32 1
  store i64 0, ptr %tv_usec, align 8
  br label %if.end

if.end:                                           ; preds = %if.else, %if.then
  %tm_year = getelementptr inbounds %struct.tm, ptr %tmCopy, i32 0, i32 5
  %4 = load i32, ptr %tm_year, align 4
  %add = add nsw i32 %4, 1900
  %tm_mon = getelementptr inbounds %struct.tm, ptr %tmCopy, i32 0, i32 4
  %5 = load i32, ptr %tm_mon, align 8
  %add6 = add nsw i32 %5, 1
  %tm_mday = getelementptr inbounds %struct.tm, ptr %tmCopy, i32 0, i32 3
  %6 = load i32, ptr %tm_mday, align 4
  %tm_hour = getelementptr inbounds %struct.tm, ptr %tmCopy, i32 0, i32 2
  %7 = load i32, ptr %tm_hour, align 8
  %tm_min = getelementptr inbounds %struct.tm, ptr %tmCopy, i32 0, i32 1
  %8 = load i32, ptr %tm_min, align 4
  %tm_sec = getelementptr inbounds %struct.tm, ptr %tmCopy, i32 0, i32 0
  %9 = load i32, ptr %tm_sec, align 8
  %tv_usec7 = getelementptr inbounds %struct.timeval, ptr %tv, i32 0, i32 1
  %10 = load i64, ptr %tv_usec7, align 8
  %mul = mul nsw i64 %10, 1000
  %conv = trunc i64 %mul to i32
  call void @_ZN2EA4StdC8DateTime3SetEjjjjjjj(ptr noundef nonnull align 8 dereferenceable(12) %this1, i32 noundef %add, i32 noundef %add6, i32 noundef %6, i32 noundef %7, i32 noundef %8, i32 noundef %9, i32 noundef %conv)
  ret void
}