; Function Attrs: mustprogress nounwind uwtable
define dso_local void @_ZN2EA4StdC8DateTime3SetENS0_9TimeFrameEb(ptr noundef nonnull align 8 dereferenceable(12) %this, i32 noundef %timeFrame, i1 noundef zeroext %bSetNanoseconds) local_unnamed_addr #3 align 2 {
entry:
  %tz.i = alloca %struct.timezone_, align 4
  %nowtm.i = alloca i64, align 8
  %tmResult.i = alloca %struct.tm, align 8
  %nTime = alloca i64, align 8
  %tv = alloca %struct.timeval, align 8
  %call = tail call i64 @time(ptr noundef null) #19
  store i64 %call, ptr %nTime, align 8
  %cmp = icmp eq i32 %timeFrame, 1
  br i1 %cmp, label %cond.true, label %cond.false

cond.true:                                        ; preds = %entry
  %call2 = call ptr @gmtime(ptr noundef nonnull %nTime) #19
  br label %cond.end

cond.false:                                       ; preds = %entry
  %call3 = call ptr @localtime(ptr noundef nonnull %nTime) #19
  br label %cond.end

cond.end:                                         ; preds = %cond.false, %cond.true
  %cond = phi ptr [ %call2, %cond.true ], [ %call3, %cond.false ]
  %tmCopy.sroa.0.0.copyload = load i32, ptr %cond, align 8
  %tmCopy.sroa.2.0..sroa_idx = getelementptr inbounds nuw i8, ptr %cond, i64 4
  %tmCopy.sroa.2.0.copyload = load i32, ptr %tmCopy.sroa.2.0..sroa_idx, align 4
  %tmCopy.sroa.3.0..sroa_idx = getelementptr inbounds nuw i8, ptr %cond, i64 8
  %tmCopy.sroa.3.0.copyload = load i32, ptr %tmCopy.sroa.3.0..sroa_idx, align 8
  %tmCopy.sroa.4.0..sroa_idx = getelementptr inbounds nuw i8, ptr %cond, i64 12
  %tmCopy.sroa.4.0.copyload = load i32, ptr %tmCopy.sroa.4.0..sroa_idx, align 4
  %tmCopy.sroa.5.0..sroa_idx = getelementptr inbounds nuw i8, ptr %cond, i64 16
  %tmCopy.sroa.5.0.copyload = load i32, ptr %tmCopy.sroa.5.0..sroa_idx, align 8
  %tmCopy.sroa.6.0..sroa_idx = getelementptr inbounds nuw i8, ptr %cond, i64 20
  %tmCopy.sroa.6.0.copyload = load i32, ptr %tmCopy.sroa.6.0..sroa_idx, align 4
  br i1 %bSetNanoseconds, label %if.then, label %if.end

if.then:                                          ; preds = %cond.end
  call void @llvm.lifetime.start.p0(i64 8, ptr nonnull %tz.i)
  call void @llvm.lifetime.start.p0(i64 8, ptr nonnull %nowtm.i)
  call void @llvm.lifetime.start.p0(i64 56, ptr nonnull %tmResult.i)
  %call.i = call i32 @gettimeofday(ptr noundef nonnull %tv, ptr noundef nonnull %tz.i) #19
  %0 = load i64, ptr %tv, align 8
  store i64 %0, ptr %nowtm.i, align 8
  %call4.i = call ptr @localtime_r(ptr noundef nonnull %nowtm.i, ptr noundef nonnull %tmResult.i) #19
  call void @llvm.lifetime.end.p0(i64 8, ptr nonnull %tz.i)
  call void @llvm.lifetime.end.p0(i64 8, ptr nonnull %nowtm.i)
  call void @llvm.lifetime.end.p0(i64 56, ptr nonnull %tmResult.i)
  %tv_usec7.phi.trans.insert = getelementptr inbounds nuw i8, ptr %tv, i64 8
  %.pre = load i64, ptr %tv_usec7.phi.trans.insert, align 8
  %1 = trunc i64 %.pre to i32
  %2 = mul i32 %1, 1000
  br label %if.end

if.end:                                           ; preds = %cond.end, %if.then
  %conv = phi i32 [ %2, %if.then ], [ 0, %cond.end ]
  %add = add nsw i32 %tmCopy.sroa.6.0.copyload, 1900
  %add6 = add nsw i32 %tmCopy.sroa.5.0.copyload, 1
  call void @_ZN2EA4StdC8DateTime3SetEjjjjjjj(ptr noundef nonnull align 8 dereferenceable(12) %this, i32 noundef %add, i32 noundef %add6, i32 noundef %tmCopy.sroa.4.0.copyload, i32 noundef %tmCopy.sroa.3.0.copyload, i32 noundef %tmCopy.sroa.2.0.copyload, i32 noundef %tmCopy.sroa.0.0.copyload, i32 noundef %conv)
  ret void
}